target datalayout = "e-m:e-p270:32:32-p271:32:32-p272:64:64-i64:64-i128:128-f80:128-n8:16:32:64-S128"
target triple = "x86_64-pc-linux-gnu"

%struct.Aig_Obj_t_ = type { %union.anon, ptr, ptr, i64, i32, i32, %union.anon.0 }
%union.anon = type { ptr }
%union.anon.0 = type { ptr }
%struct.Fra_Sml_t_ = type { ptr, i32, i32, i32, i32, i32, i32, i32, i32, [0 x i32] }
%struct.Aig_Man_t_ = type { ptr, ptr, ptr, ptr, ptr, ptr, ptr, %struct.Aig_Obj_t_, i32, i32, i32, i32, i32, i32, [7 x i32], i32, ptr, i32, ptr, i32, ptr, i32, i32, i32, ptr, i32, i32, i32, i32, i32, ptr, ptr, i32, ptr, ptr, i32, ptr, ptr, i32, i32, i32, ptr, ptr, ptr, ptr, ptr, ptr, ptr, ptr, ptr, ptr, ptr, ptr, ptr, ptr, i32, ptr, ptr, ptr, ptr, i32, i64, i64, i64, ptr, ptr }
%struct.Vec_Ptr_t_ = type { i32, i32, ptr }

; Function Attrs: inlinehint nounwind uwtable
define internal i32 @Fra_ObjRandomSim() #2 {
  %1 = call i32 @Aig_ManRandom(i32 noundef 0)
  ret i32 %1
}

; Function Attrs: inlinehint nounwind uwtable
define internal ptr @Fra_ObjSim(ptr noundef %0, i32 noundef %1) #2 {
  %3 = alloca ptr, align 8
  %4 = alloca i32, align 4
  store ptr %0, ptr %3, align 8, !tbaa !35
  store i32 %1, ptr %4, align 4, !tbaa !8
  %5 = load ptr, ptr %3, align 8, !tbaa !35
  %6 = getelementptr inbounds nuw %struct.Fra_Sml_t_, ptr %5, i32 0, i32 9
  %7 = getelementptr inbounds [0 x i32], ptr %6, i64 0, i64 0
  %8 = load ptr, ptr %3, align 8, !tbaa !35
  %9 = getelementptr inbounds nuw %struct.Fra_Sml_t_, ptr %8, i32 0, i32 4
  %10 = load i32, ptr %9, align 4, !tbaa !32
  %11 = load i32, ptr %4, align 4, !tbaa !8
  %12 = mul nsw i32 %10, %11
  %13 = sext i32 %12 to i64
  %14 = getelementptr inbounds i32, ptr %7, i64 %13
  ret ptr %14
}

; Function Attrs: nounwind uwtable
define void @Fra_SmlAssignConst(ptr noundef %0, ptr noundef %1, i32 noundef %2, i32 noundef %3) #0 {
  %5 = alloca ptr, align 8
  %6 = alloca ptr, align 8
  %7 = alloca i32, align 4
  %8 = alloca i32, align 4
  %9 = alloca ptr, align 8
  %10 = alloca i32, align 4
  store ptr %0, ptr %5, align 8, !tbaa !35
  store ptr %1, ptr %6, align 8, !tbaa !3
  store i32 %2, ptr %7, align 4, !tbaa !8
  store i32 %3, ptr %8, align 4, !tbaa !8
  call void @llvm.lifetime.start.p0(i64 8, ptr %9) #8
  call void @llvm.lifetime.start.p0(i64 4, ptr %10) #8
  %11 = load ptr, ptr %5, align 8, !tbaa !35
  %12 = load ptr, ptr %6, align 8, !tbaa !3
  %13 = getelementptr inbounds nuw %struct.Aig_Obj_t_, ptr %12, i32 0, i32 5
  %14 = load i32, ptr %13, align 4, !tbaa !27
  %15 = call ptr @Fra_ObjSim(ptr noundef %11, i32 noundef %14)
  %16 = load ptr, ptr %5, align 8, !tbaa !35
  %17 = getelementptr inbounds nuw %struct.Fra_Sml_t_, ptr %16, i32 0, i32 3
  %18 = load i32, ptr %17, align 8, !tbaa !92
  %19 = load i32, ptr %8, align 4, !tbaa !8
  %20 = mul nsw i32 %18, %19
  %21 = sext i32 %20 to i64
  %22 = getelementptr inbounds i32, ptr %15, i64 %21
  store ptr %22, ptr %9, align 8, !tbaa !29
  store i32 0, ptr %10, align 4, !tbaa !8
  br label %23

23:                                               ; preds = %37, %4
  %24 = load i32, ptr %10, align 4, !tbaa !8
  %25 = load ptr, ptr %5, align 8, !tbaa !35
  %26 = getelementptr inbounds nuw %struct.Fra_Sml_t_, ptr %25, i32 0, i32 3
  %27 = load i32, ptr %26, align 8, !tbaa !92
  %28 = icmp slt i32 %24, %27
  br i1 %28, label %29, label %40

29:                                               ; preds = %23
  %30 = load i32, ptr %7, align 4, !tbaa !8
  %31 = icmp ne i32 %30, 0
  %32 = select i1 %31, i32 -1, i32 0
  %33 = load ptr, ptr %9, align 8, !tbaa !29
  %34 = load i32, ptr %10, align 4, !tbaa !8
  %35 = sext i32 %34 to i64
  %36 = getelementptr inbounds i32, ptr %33, i64 %35
  store i32 %32, ptr %36, align 4, !tbaa !8
  br label %37

37:                                               ; preds = %29
  %38 = load i32, ptr %10, align 4, !tbaa !8
  %39 = add nsw i32 %38, 1
  store i32 %39, ptr %10, align 4, !tbaa !8
  br label %23, !llvm.loop !93

40:                                               ; preds = %23
  call void @llvm.lifetime.end.p0(i64 4, ptr %10) #8
  call void @llvm.lifetime.end.p0(i64 8, ptr %9) #8
  ret void
}

; Function Attrs: inlinehint nounwind uwtable
define internal i32 @Vec_PtrSize(ptr noundef %0) #2 {
  %2 = alloca ptr, align 8
  store ptr %0, ptr %2, align 8, !tbaa !54
  %3 = load ptr, ptr %2, align 8, !tbaa !54
  %4 = getelementptr inbounds nuw %struct.Vec_Ptr_t_, ptr %3, i32 0, i32 1
  %5 = load i32, ptr %4, align 4, !tbaa !55
  ret i32 %5
}

; Function Attrs: nounwind uwtable
define void @Fra_SmlAssignRandom(ptr noundef %0, ptr noundef %1) #0 {
  %3 = alloca ptr, align 8
  %4 = alloca ptr, align 8
  %5 = alloca ptr, align 8
  %6 = alloca i32, align 4
  store ptr %0, ptr %3, align 8, !tbaa !35
  store ptr %1, ptr %4, align 8, !tbaa !3
  call void @llvm.lifetime.start.p0(i64 8, ptr %5) #8
  call void @llvm.lifetime.start.p0(i64 4, ptr %6) #8
  %7 = load ptr, ptr %3, align 8, !tbaa !35
  %8 = load ptr, ptr %4, align 8, !tbaa !3
  %9 = getelementptr inbounds nuw %struct.Aig_Obj_t_, ptr %8, i32 0, i32 5
  %10 = load i32, ptr %9, align 4, !tbaa !27
  %11 = call ptr @Fra_ObjSim(ptr noundef %7, i32 noundef %10)
  store ptr %11, ptr %5, align 8, !tbaa !29
  store i32 0, ptr %6, align 4, !tbaa !8
  br label %12

12:                                               ; preds = %24, %2
  %13 = load i32, ptr %6, align 4, !tbaa !8
  %14 = load ptr, ptr %3, align 8, !tbaa !35
  %15 = getelementptr inbounds nuw %struct.Fra_Sml_t_, ptr %14, i32 0, i32 4
  %16 = load i32, ptr %15, align 4, !tbaa !32
  %17 = icmp slt i32 %13, %16
  br i1 %17, label %18, label %27

18:                                               ; preds = %12
  %19 = call i32 @Fra_ObjRandomSim()
  %20 = load ptr, ptr %5, align 8, !tbaa !29
  %21 = load i32, ptr %6, align 4, !tbaa !8
  %22 = sext i32 %21 to i64
  %23 = getelementptr inbounds i32, ptr %20, i64 %22
  store i32 %19, ptr %23, align 4, !tbaa !8
  br label %24

24:                                               ; preds = %18
  %25 = load i32, ptr %6, align 4, !tbaa !8
  %26 = add nsw i32 %25, 1
  store i32 %26, ptr %6, align 4, !tbaa !8
  br label %12, !llvm.loop !91

27:                                               ; preds = %12
  call void @llvm.lifetime.end.p0(i64 4, ptr %6) #8
  call void @llvm.lifetime.end.p0(i64 8, ptr %5) #8
  ret void
}

; Function Attrs: inlinehint nounwind uwtable
define internal ptr @Vec_PtrEntry(ptr noundef %0, i32 noundef %1) #2 {
  %3 = alloca ptr, align 8
  %4 = alloca i32, align 4
  store ptr %0, ptr %3, align 8, !tbaa !54
  store i32 %1, ptr %4, align 4, !tbaa !8
  %5 = load ptr, ptr %3, align 8, !tbaa !54
  %6 = getelementptr inbounds nuw %struct.Vec_Ptr_t_, ptr %5, i32 0, i32 2
  %7 = load ptr, ptr %6, align 8, !tbaa !57
  %8 = load i32, ptr %4, align 4, !tbaa !8
  %9 = sext i32 %8 to i64
  %10 = getelementptr inbounds ptr, ptr %7, i64 %9
  %11 = load ptr, ptr %10, align 8, !tbaa !58
  ret ptr %11
}

; Function Attrs: inlinehint nounwind uwtable
define internal i32 @Aig_ManRegNum(ptr noundef %0) #2 {
  %2 = alloca ptr, align 8
  store ptr %0, ptr %2, align 8, !tbaa !52
  %3 = load ptr, ptr %2, align 8, !tbaa !52
  %4 = getelementptr inbounds nuw %struct.Aig_Man_t_, ptr %3, i32 0, i32 8
  %5 = load i32, ptr %4, align 8, !tbaa !53
  ret i32 %5
}

; Function Attrs: inlinehint nounwind uwtable
define internal i32 @Aig_ManCiNum(ptr noundef %0) #2 {
  %2 = alloca ptr, align 8
  store ptr %0, ptr %2, align 8, !tbaa !52
  %3 = load ptr, ptr %2, align 8, !tbaa !52
  %4 = getelementptr inbounds nuw %struct.Aig_Man_t_, ptr %3, i32 0, i32 14
  %5 = getelementptr inbounds [7 x i32], ptr %4, i64 0, i64 2
  %6 = load i32, ptr %5, align 8, !tbaa !8
  ret i32 %6
}

; Function Attrs: nounwind uwtable
define void @Fra_SmlInitialize(ptr noundef %0, i32 noundef %1) #0 {
  %3 = alloca ptr, align 8
  %4 = alloca i32, align 4
  %5 = alloca ptr, align 8
  %6 = alloca i32, align 4
  store ptr %0, ptr %3, align 8, !tbaa !35
  store i32 %1, ptr %4, align 4, !tbaa !8
  call void @llvm.lifetime.start.p0(i64 8, ptr %5) #8
  call void @llvm.lifetime.start.p0(i64 4, ptr %6) #8
  %7 = load i32, ptr %4, align 4, !tbaa !8
  %8 = icmp ne i32 %7, 0
  br i1 %8, label %9, label %74

9:                                                ; preds = %2
  store i32 0, ptr %6, align 4, !tbaa !8
  br label %10

10:                                               ; preds = %35, %9
  %11 = load i32, ptr %6, align 4, !tbaa !8
  %12 = load ptr, ptr %3, align 8, !tbaa !35
  %13 = getelementptr inbounds nuw %struct.Fra_Sml_t_, ptr %12, i32 0, i32 0
  %14 = load ptr, ptr %13, align 8, !tbaa !94
  %15 = call i32 @Aig_ManCiNum(ptr noundef %14)
  %16 = load ptr, ptr %3, align 8, !tbaa !35
  %17 = getelementptr inbounds nuw %struct.Fra_Sml_t_, ptr %16, i32 0, i32 0
  %18 = load ptr, ptr %17, align 8, !tbaa !94
  %19 = call i32 @Aig_ManRegNum(ptr noundef %18)
  %20 = sub nsw i32 %15, %19
  %21 = icmp slt i32 %11, %20
  br i1 %21, label %22, label %30

22:                                               ; preds = %10
  %23 = load ptr, ptr %3, align 8, !tbaa !35
  %24 = getelementptr inbounds nuw %struct.Fra_Sml_t_, ptr %23, i32 0, i32 0
  %25 = load ptr, ptr %24, align 8, !tbaa !94
  %26 = getelementptr inbounds nuw %struct.Aig_Man_t_, ptr %25, i32 0, i32 2
  %27 = load ptr, ptr %26, align 8, !tbaa !44
  %28 = load i32, ptr %6, align 4, !tbaa !8
  %29 = call ptr @Vec_PtrEntry(ptr noundef %27, i32 noundef %28)
  store ptr %29, ptr %5, align 8, !tbaa !3
  br label %30

30:                                               ; preds = %22, %10
  %31 = phi i1 [ false, %10 ], [ true, %22 ]
  br i1 %31, label %32, label %38

32:                                               ; preds = %30
  %33 = load ptr, ptr %3, align 8, !tbaa !35
  %34 = load ptr, ptr %5, align 8, !tbaa !3
  call void @Fra_SmlAssignRandom(ptr noundef %33, ptr noundef %34)
  br label %35

35:                                               ; preds = %32
  %36 = load i32, ptr %6, align 4, !tbaa !8
  %37 = add nsw i32 %36, 1
  store i32 %37, ptr %6, align 4, !tbaa !8
  br label %10, !llvm.loop !95

38:                                               ; preds = %30
  %39 = load ptr, ptr %3, align 8, !tbaa !35
  %40 = getelementptr inbounds nuw %struct.Fra_Sml_t_, ptr %39, i32 0, i32 0
  %41 = load ptr, ptr %40, align 8, !tbaa !94
  %42 = call i32 @Aig_ManCiNum(ptr noundef %41)
  %43 = load ptr, ptr %3, align 8, !tbaa !35
  %44 = getelementptr inbounds nuw %struct.Fra_Sml_t_, ptr %43, i32 0, i32 0
  %45 = load ptr, ptr %44, align 8, !tbaa !94
  %46 = call i32 @Aig_ManRegNum(ptr noundef %45)
  %47 = sub nsw i32 %42, %46
  store i32 %47, ptr %6, align 4, !tbaa !8
  br label %48

48:                                               ; preds = %70, %38
  %49 = load i32, ptr %6, align 4, !tbaa !8
  %50 = load ptr, ptr %3, align 8, !tbaa !35
  %51 = getelementptr inbounds nuw %struct.Fra_Sml_t_, ptr %50, i32 0, i32 0
  %52 = load ptr, ptr %51, align 8, !tbaa !94
  %53 = getelementptr inbounds nuw %struct.Aig_Man_t_, ptr %52, i32 0, i32 2
  %54 = load ptr, ptr %53, align 8, !tbaa !44
  %55 = call i32 @Vec_PtrSize(ptr noundef %54)
  %56 = icmp slt i32 %49, %55
  br i1 %56, label %57, label %65

57:                                               ; preds = %48
  %58 = load ptr, ptr %3, align 8, !tbaa !35
  %59 = getelementptr inbounds nuw %struct.Fra_Sml_t_, ptr %58, i32 0, i32 0
  %60 = load ptr, ptr %59, align 8, !tbaa !94
  %61 = getelementptr inbounds nuw %struct.Aig_Man_t_, ptr %60, i32 0, i32 2
  %62 = load ptr, ptr %61, align 8, !tbaa !44
  %63 = load i32, ptr %6, align 4, !tbaa !8
  %64 = call ptr @Vec_PtrEntry(ptr noundef %62, i32 noundef %63)
  store ptr %64, ptr %5, align 8, !tbaa !3
  br label %65

65:                                               ; preds = %57, %48
  %66 = phi i1 [ false, %48 ], [ true, %57 ]
  br i1 %66, label %67, label %73

67:                                               ; preds = %65
  %68 = load ptr, ptr %3, align 8, !tbaa !35
  %69 = load ptr, ptr %5, align 8, !tbaa !3
  call void @Fra_SmlAssignConst(ptr noundef %68, ptr noundef %69, i32 noundef 0, i32 noundef 0)
  br label %70

70:                                               ; preds = %67
  %71 = load i32, ptr %6, align 4, !tbaa !8
  %72 = add nsw i32 %71, 1
  store i32 %72, ptr %6, align 4, !tbaa !8
  br label %48, !llvm.loop !96

73:                                               ; preds = %65
  br label %101

74:                                               ; preds = %2
  store i32 0, ptr %6, align 4, !tbaa !8
  br label %75

75:                                               ; preds = %97, %74
  %76 = load i32, ptr %6, align 4, !tbaa !8
  %77 = load ptr, ptr %3, align 8, !tbaa !35
  %78 = getelementptr inbounds nuw %struct.Fra_Sml_t_, ptr %77, i32 0, i32 0
  %79 = load ptr, ptr %78, align 8, !tbaa !94
  %80 = getelementptr inbounds nuw %struct.Aig_Man_t_, ptr %79, i32 0, i32 2
  %81 = load ptr, ptr %80, align 8, !tbaa !44
  %82 = call i32 @Vec_PtrSize(ptr noundef %81)
  %83 = icmp slt i32 %76, %82
  br i1 %83, label %84, label %92

84:                                               ; preds = %75
  %85 = load ptr, ptr %3, align 8, !tbaa !35
  %86 = getelementptr inbounds nuw %struct.Fra_Sml_t_, ptr %85, i32 0, i32 0
  %87 = load ptr, ptr %86, align 8, !tbaa !94
  %88 = getelementptr inbounds nuw %struct.Aig_Man_t_, ptr %87, i32 0, i32 2
  %89 = load ptr, ptr %88, align 8, !tbaa !44
  %90 = load i32, ptr %6, align 4, !tbaa !8
  %91 = call ptr @Vec_PtrEntry(ptr noundef %89, i32 noundef %90)
  store ptr %91, ptr %5, align 8, !tbaa !3
  br label %92

92:                                               ; preds = %84, %75
  %93 = phi i1 [ false, %75 ], [ true, %84 ]
  br i1 %93, label %94, label %100

94:                                               ; preds = %92
  %95 = load ptr, ptr %3, align 8, !tbaa !35
  %96 = load ptr, ptr %5, align 8, !tbaa !3
  call void @Fra_SmlAssignRandom(ptr noundef %95, ptr noundef %96)
  br label %97

97:                                               ; preds = %94
  %98 = load i32, ptr %6, align 4, !tbaa !8
  %99 = add nsw i32 %98, 1
  store i32 %99, ptr %6, align 4, !tbaa !8
  br label %75, !llvm.loop !97

100:                                              ; preds = %92
  br label %101

101:                                              ; preds = %100, %73
  call void @llvm.lifetime.end.p0(i64 4, ptr %6) #8
  call void @llvm.lifetime.end.p0(i64 8, ptr %5) #8
  ret void
}