; Function Attrs: nounwind uwtable
define void @Fra_SmlInitialize(ptr noundef captures(none) %0, i32 noundef %1) local_unnamed_addr #6 {
  %.not = icmp eq i32 %1, 0
  %3 = load ptr, ptr %0, align 8, !tbaa !85
  br i1 %.not, label %.preheader, label %.preheader44

.preheader44:                                     ; preds = %2
  %4 = getelementptr i8, ptr %3, i64 136
  %.val2846 = load i32, ptr %4, align 8, !tbaa !28
  %5 = getelementptr i8, ptr %3, i64 104
  %.val3047 = load i32, ptr %5, align 8, !tbaa !39
  %6 = sub nsw i32 %.val2846, %.val3047
  %7 = icmp sgt i32 %6, 0
  br i1 %7, label %.lr.ph, label %.critedge.preheader

.lr.ph:                                           ; preds = %.preheader44
  %8 = getelementptr inbounds nuw i8, ptr %0, i64 40
  %9 = getelementptr inbounds nuw i8, ptr %0, i64 20
  %10 = load i32, ptr %9, align 4, !tbaa !25
  %11 = icmp sgt i32 %10, 0
  br i1 %11, label %.lr.ph.split, label %.critedge.preheader

.preheader:                                       ; preds = %2
  %12 = getelementptr inbounds nuw i8, ptr %3, i64 16
  %13 = load ptr, ptr %12, align 8, !tbaa !45
  %14 = getelementptr i8, ptr %13, i64 4
  %.val3154 = load i32, ptr %14, align 4, !tbaa !46
  %15 = icmp sgt i32 %.val3154, 0
  br i1 %15, label %.lr.ph56, label %.critedge2

.lr.ph56:                                         ; preds = %.preheader
  %16 = getelementptr inbounds nuw i8, ptr %0, i64 40
  %17 = getelementptr inbounds nuw i8, ptr %0, i64 20
  %18 = load i32, ptr %17, align 4, !tbaa !25
  %19 = icmp sgt i32 %18, 0
  br i1 %19, label %.lr.ph56.split, label %.critedge2

.critedge.preheader:                              ; preds = %Fra_SmlAssignRandom.exit, %.lr.ph, %.preheader44
  %.lcssa45 = phi ptr [ %3, %.preheader44 ], [ %3, %.lr.ph ], [ %49, %Fra_SmlAssignRandom.exit ]
  %.lcssa = phi i32 [ %6, %.preheader44 ], [ %6, %.lr.ph ], [ %53, %Fra_SmlAssignRandom.exit ]
  %20 = getelementptr inbounds nuw i8, ptr %.lcssa45, i64 16
  %21 = load ptr, ptr %20, align 8, !tbaa !45
  %22 = getelementptr i8, ptr %21, i64 4
  %.val3251 = load i32, ptr %22, align 4, !tbaa !46
  %23 = icmp slt i32 %.lcssa, %.val3251
  br i1 %23, label %.lr.ph53, label %.critedge2

.lr.ph53:                                         ; preds = %.critedge.preheader
  %24 = getelementptr i8, ptr %21, i64 8
  %.val34 = load ptr, ptr %24, align 8, !tbaa !51
  %25 = getelementptr inbounds nuw i8, ptr %0, i64 40
  %26 = getelementptr inbounds nuw i8, ptr %0, i64 20
  %27 = getelementptr inbounds nuw i8, ptr %0, i64 16
  %28 = load i32, ptr %27, align 8, !tbaa !83
  %29 = icmp sgt i32 %28, 0
  br i1 %29, label %.lr.ph53.split.preheader, label %.critedge2

.lr.ph53.split.preheader:                         ; preds = %.lr.ph53
  %30 = sext i32 %.lcssa to i64
  br label %.lr.ph53.split

.lr.ph.split:                                     ; preds = %.lr.ph, %Fra_SmlAssignRandom.exit
  %31 = phi ptr [ %49, %Fra_SmlAssignRandom.exit ], [ %3, %.lr.ph ]
  %32 = phi i32 [ %50, %Fra_SmlAssignRandom.exit ], [ %10, %.lr.ph ]
  %indvars.iv = phi i64 [ %indvars.iv.next, %Fra_SmlAssignRandom.exit ], [ 0, %.lr.ph ]
  %33 = getelementptr inbounds nuw i8, ptr %31, i64 16
  %34 = load ptr, ptr %33, align 8, !tbaa !45
  %35 = getelementptr i8, ptr %34, i64 8
  %.val35 = load ptr, ptr %35, align 8, !tbaa !51
  %36 = getelementptr inbounds nuw ptr, ptr %.val35, i64 %indvars.iv
  %37 = load ptr, ptr %36, align 8, !tbaa !65
  %38 = getelementptr inbounds nuw i8, ptr %37, i64 36
  %39 = load i32, ptr %38, align 4, !tbaa !22
  %40 = mul nsw i32 %32, %39
  %41 = sext i32 %40 to i64
  %42 = getelementptr inbounds i32, ptr %8, i64 %41
  %43 = icmp sgt i32 %32, 0
  br i1 %43, label %.lr.ph.i, label %Fra_SmlAssignRandom.exit

.lr.ph.i:                                         ; preds = %.lr.ph.split, %.lr.ph.i
  %indvars.iv.i = phi i64 [ %indvars.iv.next.i, %.lr.ph.i ], [ 0, %.lr.ph.split ]
  %44 = tail call i32 @Aig_ManRandom(i32 noundef 0) #22
  %45 = getelementptr inbounds nuw i32, ptr %42, i64 %indvars.iv.i
  store i32 %44, ptr %45, align 4, !tbaa !28
  %indvars.iv.next.i = add nuw nsw i64 %indvars.iv.i, 1
  %46 = load i32, ptr %9, align 4, !tbaa !25
  %47 = sext i32 %46 to i64
  %48 = icmp slt i64 %indvars.iv.next.i, %47
  br i1 %48, label %.lr.ph.i, label %Fra_SmlAssignRandom.exit.loopexit, !llvm.loop !82

Fra_SmlAssignRandom.exit.loopexit:                ; preds = %.lr.ph.i
  %.pre = load ptr, ptr %0, align 8, !tbaa !85
  br label %Fra_SmlAssignRandom.exit

Fra_SmlAssignRandom.exit:                         ; preds = %Fra_SmlAssignRandom.exit.loopexit, %.lr.ph.split
  %49 = phi ptr [ %.pre, %Fra_SmlAssignRandom.exit.loopexit ], [ %31, %.lr.ph.split ]
  %50 = phi i32 [ %46, %Fra_SmlAssignRandom.exit.loopexit ], [ %32, %.lr.ph.split ]
  %indvars.iv.next = add nuw nsw i64 %indvars.iv, 1
  %51 = getelementptr i8, ptr %49, i64 136
  %.val28 = load i32, ptr %51, align 8, !tbaa !28
  %52 = getelementptr i8, ptr %49, i64 104
  %.val30 = load i32, ptr %52, align 8, !tbaa !39
  %53 = sub nsw i32 %.val28, %.val30
  %54 = sext i32 %53 to i64
  %55 = icmp slt i64 %indvars.iv.next, %54
  br i1 %55, label %.lr.ph.split, label %.critedge.preheader, !llvm.loop !86

.lr.ph53.split:                                   ; preds = %.lr.ph53.split.preheader, %Fra_SmlAssignConst.exit
  %.val3270 = phi i32 [ %.val3251, %.lr.ph53.split.preheader ], [ %.val32, %Fra_SmlAssignConst.exit ]
  %56 = phi i32 [ %28, %.lr.ph53.split.preheader ], [ %70, %Fra_SmlAssignConst.exit ]
  %indvars.iv64 = phi i64 [ %30, %.lr.ph53.split.preheader ], [ %indvars.iv.next65, %Fra_SmlAssignConst.exit ]
  %57 = getelementptr inbounds ptr, ptr %.val34, i64 %indvars.iv64
  %58 = load ptr, ptr %57, align 8, !tbaa !65
  %59 = getelementptr inbounds nuw i8, ptr %58, i64 36
  %60 = load i32, ptr %59, align 4, !tbaa !22
  %61 = load i32, ptr %26, align 4, !tbaa !25
  %62 = mul nsw i32 %61, %60
  %63 = sext i32 %62 to i64
  %64 = getelementptr inbounds i32, ptr %25, i64 %63
  %65 = icmp sgt i32 %56, 0
  br i1 %65, label %.lr.ph.i36, label %Fra_SmlAssignConst.exit

.lr.ph.i36:                                       ; preds = %.lr.ph53.split, %.lr.ph.i36
  %indvars.iv.i37 = phi i64 [ %indvars.iv.next.i38, %.lr.ph.i36 ], [ 0, %.lr.ph53.split ]
  %66 = getelementptr inbounds nuw i32, ptr %64, i64 %indvars.iv.i37
  store i32 0, ptr %66, align 4, !tbaa !28
  %indvars.iv.next.i38 = add nuw nsw i64 %indvars.iv.i37, 1
  %67 = load i32, ptr %27, align 8, !tbaa !83
  %68 = sext i32 %67 to i64
  %69 = icmp slt i64 %indvars.iv.next.i38, %68
  br i1 %69, label %.lr.ph.i36, label %Fra_SmlAssignConst.exit.loopexit, !llvm.loop !84

Fra_SmlAssignConst.exit.loopexit:                 ; preds = %.lr.ph.i36
  %.val32.pre = load i32, ptr %22, align 4, !tbaa !46
  br label %Fra_SmlAssignConst.exit

Fra_SmlAssignConst.exit:                          ; preds = %Fra_SmlAssignConst.exit.loopexit, %.lr.ph53.split
  %.val32 = phi i32 [ %.val32.pre, %Fra_SmlAssignConst.exit.loopexit ], [ %.val3270, %.lr.ph53.split ]
  %70 = phi i32 [ %67, %Fra_SmlAssignConst.exit.loopexit ], [ %56, %.lr.ph53.split ]
  %indvars.iv.next65 = add nsw i64 %indvars.iv64, 1
  %71 = sext i32 %.val32 to i64
  %72 = icmp slt i64 %indvars.iv.next65, %71
  br i1 %72, label %.lr.ph53.split, label %.critedge2, !llvm.loop !88

.lr.ph56.split:                                   ; preds = %.lr.ph56, %Fra_SmlAssignRandom.exit42
  %73 = phi ptr [ %90, %Fra_SmlAssignRandom.exit42 ], [ %3, %.lr.ph56 ]
  %74 = phi i32 [ %91, %Fra_SmlAssignRandom.exit42 ], [ %18, %.lr.ph56 ]
  %indvars.iv67 = phi i64 [ %indvars.iv.next68, %Fra_SmlAssignRandom.exit42 ], [ 0, %.lr.ph56 ]
  %75 = phi ptr [ %93, %Fra_SmlAssignRandom.exit42 ], [ %13, %.lr.ph56 ]
  %76 = getelementptr i8, ptr %75, i64 8
  %.val33 = load ptr, ptr %76, align 8, !tbaa !51
  %77 = getelementptr inbounds nuw ptr, ptr %.val33, i64 %indvars.iv67
  %78 = load ptr, ptr %77, align 8, !tbaa !65
  %79 = getelementptr inbounds nuw i8, ptr %78, i64 36
  %80 = load i32, ptr %79, align 4, !tbaa !22
  %81 = mul nsw i32 %74, %80
  %82 = sext i32 %81 to i64
  %83 = getelementptr inbounds i32, ptr %16, i64 %82
  %84 = icmp sgt i32 %74, 0
  br i1 %84, label %.lr.ph.i39, label %Fra_SmlAssignRandom.exit42

.lr.ph.i39:                                       ; preds = %.lr.ph56.split, %.lr.ph.i39
  %indvars.iv.i40 = phi i64 [ %indvars.iv.next.i41, %.lr.ph.i39 ], [ 0, %.lr.ph56.split ]
  %85 = tail call i32 @Aig_ManRandom(i32 noundef 0) #22
  %86 = getelementptr inbounds nuw i32, ptr %83, i64 %indvars.iv.i40
  store i32 %85, ptr %86, align 4, !tbaa !28
  %indvars.iv.next.i41 = add nuw nsw i64 %indvars.iv.i40, 1
  %87 = load i32, ptr %17, align 4, !tbaa !25
  %88 = sext i32 %87 to i64
  %89 = icmp slt i64 %indvars.iv.next.i41, %88
  br i1 %89, label %.lr.ph.i39, label %Fra_SmlAssignRandom.exit42.loopexit, !llvm.loop !82

Fra_SmlAssignRandom.exit42.loopexit:              ; preds = %.lr.ph.i39
  %.pre72 = load ptr, ptr %0, align 8, !tbaa !85
  br label %Fra_SmlAssignRandom.exit42

Fra_SmlAssignRandom.exit42:                       ; preds = %Fra_SmlAssignRandom.exit42.loopexit, %.lr.ph56.split
  %90 = phi ptr [ %.pre72, %Fra_SmlAssignRandom.exit42.loopexit ], [ %73, %.lr.ph56.split ]
  %91 = phi i32 [ %87, %Fra_SmlAssignRandom.exit42.loopexit ], [ %74, %.lr.ph56.split ]
  %indvars.iv.next68 = add nuw nsw i64 %indvars.iv67, 1
  %92 = getelementptr inbounds nuw i8, ptr %90, i64 16
  %93 = load ptr, ptr %92, align 8, !tbaa !45
  %94 = getelementptr i8, ptr %93, i64 4
  %.val31 = load i32, ptr %94, align 4, !tbaa !46
  %95 = sext i32 %.val31 to i64
  %96 = icmp slt i64 %indvars.iv.next68, %95
  br i1 %96, label %.lr.ph56.split, label %.critedge2, !llvm.loop !89

.critedge2:                                       ; preds = %Fra_SmlAssignConst.exit, %Fra_SmlAssignRandom.exit42, %.lr.ph53, %.lr.ph56, %.critedge.preheader, %.preheader
  ret void
}